target datalayout = "e-m:e-p270:32:32-p271:32:32-p272:64:64-i64:64-i128:128-f80:128-n8:16:32:64-S128"
target triple = "x86_64-unknown-linux-gnu"

%struct.cbs_st = type { ptr, i64 }

@.str = private unnamed_addr constant [123 x i8] c"generated/home/dtcxzyw/WorkSpace/Projects/compilers/llvm-opt-benchmark/bench/libquic/libquic/boringssl/crypto/ec/ec_asn1.c\00", align 1

; Function Attrs: nounwind uwtable
define hidden ptr @d2i_ECPrivateKey(ptr noundef %out, ptr noundef %inp, i64 noundef %len) #0 {
entry:
  %retval = alloca ptr, align 8
  %out.addr = alloca ptr, align 8
  %inp.addr = alloca ptr, align 8
  %len.addr = alloca i64, align 8
  %group = alloca ptr, align 8
  %cbs = alloca %struct.cbs_st, align 8
  %ret = alloca ptr, align 8
  store ptr %out, ptr %out.addr, align 8
  store ptr %inp, ptr %inp.addr, align 8
  store i64 %len, ptr %len.addr, align 8
  store ptr null, ptr %group, align 8
  %0 = load ptr, ptr %out.addr, align 8
  %cmp = icmp ne ptr %0, null
  br i1 %cmp, label %land.lhs.true, label %if.end

land.lhs.true:                                    ; preds = %entry
  %1 = load ptr, ptr %out.addr, align 8
  %2 = load ptr, ptr %1, align 8
  %cmp1 = icmp ne ptr %2, null
  br i1 %cmp1, label %if.then, label %if.end

if.then:                                          ; preds = %land.lhs.true
  %3 = load ptr, ptr %out.addr, align 8
  %4 = load ptr, ptr %3, align 8
  %call = call ptr @EC_KEY_get0_group(ptr noundef %4)
  store ptr %call, ptr %group, align 8
  br label %if.end

if.end:                                           ; preds = %if.then, %land.lhs.true, %entry
  %5 = load i64, ptr %len.addr, align 8
  %cmp2 = icmp slt i64 %5, 0
  br i1 %cmp2, label %if.then3, label %if.end4

if.then3:                                         ; preds = %if.end
  call void @ERR_put_error(i32 noundef 15, i32 noundef 0, i32 noundef 128, ptr noundef @.str, i32 noundef 417)
  store ptr null, ptr %retval, align 8
  br label %return

if.end4:                                          ; preds = %if.end
  %6 = load ptr, ptr %inp.addr, align 8
  %7 = load ptr, ptr %6, align 8
  %8 = load i64, ptr %len.addr, align 8
  call void @CBS_init(ptr noundef %cbs, ptr noundef %7, i64 noundef %8)
  %9 = load ptr, ptr %group, align 8
  %call5 = call ptr @EC_KEY_parse_private_key(ptr noundef %cbs, ptr noundef %9)
  store ptr %call5, ptr %ret, align 8
  %10 = load ptr, ptr %ret, align 8
  %cmp6 = icmp eq ptr %10, null
  br i1 %cmp6, label %if.then7, label %if.end8

if.then7:                                         ; preds = %if.end4
  store ptr null, ptr %retval, align 8
  br label %return

if.end8:                                          ; preds = %if.end4
  %11 = load ptr, ptr %out.addr, align 8
  %cmp9 = icmp ne ptr %11, null
  br i1 %cmp9, label %if.then10, label %if.end11

if.then10:                                        ; preds = %if.end8
  %12 = load ptr, ptr %out.addr, align 8
  %13 = load ptr, ptr %12, align 8
  call void @EC_KEY_free(ptr noundef %13)
  %14 = load ptr, ptr %ret, align 8
  %15 = load ptr, ptr %out.addr, align 8
  store ptr %14, ptr %15, align 8
  br label %if.end11

if.end11:                                         ; preds = %if.then10, %if.end8
  %call12 = call ptr @CBS_data(ptr noundef %cbs)
  %16 = load ptr, ptr %inp.addr, align 8
  store ptr %call12, ptr %16, align 8
  %17 = load ptr, ptr %ret, align 8
  store ptr %17, ptr %retval, align 8
  br label %return

return:                                           ; preds = %if.end11, %if.then7, %if.then3
  %18 = load ptr, ptr %retval, align 8
  ret ptr %18
}