; Function Attrs: nounwind uwtable
define hidden ptr @d2i_ECPrivateKey(ptr noundef %out, ptr noundef captures(none) %inp, i64 noundef %len) local_unnamed_addr #0 {
entry:
  %cbs = alloca %struct.cbs_st, align 8
  %cmp.not = icmp eq ptr %out, null
  br i1 %cmp.not, label %if.end, label %land.lhs.true

land.lhs.true:                                    ; preds = %entry
  %0 = load ptr, ptr %out, align 8
  %cmp1.not = icmp eq ptr %0, null
  br i1 %cmp1.not, label %if.end, label %if.then

if.then:                                          ; preds = %land.lhs.true
  %call = tail call ptr @EC_KEY_get0_group(ptr noundef nonnull %0) #7
  br label %if.end

if.end:                                           ; preds = %if.then, %land.lhs.true, %entry
  %group.0 = phi ptr [ %call, %if.then ], [ null, %land.lhs.true ], [ null, %entry ]
  %cmp2 = icmp slt i64 %len, 0
  br i1 %cmp2, label %if.then3, label %if.end4

if.then3:                                         ; preds = %if.end
  tail call void @ERR_put_error(i32 noundef 15, i32 noundef 0, i32 noundef 128, ptr noundef nonnull @.str, i32 noundef 417) #7
  br label %return

if.end4:                                          ; preds = %if.end
  %1 = load ptr, ptr %inp, align 8
  call void @CBS_init(ptr noundef nonnull %cbs, ptr noundef %1, i64 noundef %len) #7
  %call5 = call ptr @EC_KEY_parse_private_key(ptr noundef nonnull %cbs, ptr noundef %group.0)
  %cmp6 = icmp eq ptr %call5, null
  br i1 %cmp6, label %return, label %if.end8

if.end8:                                          ; preds = %if.end4
  br i1 %cmp.not, label %if.end11, label %if.then10

if.then10:                                        ; preds = %if.end8
  %2 = load ptr, ptr %out, align 8
  call void @EC_KEY_free(ptr noundef %2) #7
  store ptr %call5, ptr %out, align 8
  br label %if.end11

if.end11:                                         ; preds = %if.then10, %if.end8
  %call12 = call ptr @CBS_data(ptr noundef nonnull %cbs) #7
  store ptr %call12, ptr %inp, align 8
  br label %return

return:                                           ; preds = %if.end4, %if.end11, %if.then3
  %retval.0 = phi ptr [ null, %if.then3 ], [ %call5, %if.end11 ], [ null, %if.end4 ]
  ret ptr %retval.0
}